(lp0
(dp1
Vdomain
p2
V.infoa9bf3f-app.clickfunnels.com
p3
sVsecure
p4
I00
sVvalue
p5
VdWlkPU5HWXpPREExWWpjdE1XTTVNQzAwWTJZeExXRXhaVE10TURFell6azJaRFpqTURZeg
p6
sVexpiry
p7
I1647498091
sVpath
p8
V/
p9
sVhttpOnly
p10
I00
sVname
p11
V_pin_unauth
p12
sa(dp13
Vdomain
p14
V.clickfunnels.com
p15
sVname
p16
V_hjAbsoluteSessionInProgress
p17
sVvalue
p18
V0
p19
sVexpiry
p20
I1615963890
sVsameSite
p21
VLax
p22
sVpath
p23
g9
sVhttpOnly
p24
I00
sVsecure
p25
I00
sa(dp26
Vdomain
p27
V.clickfunnels.com
p28
sVsecure
p29
I00
sVvalue
p30
V1
p31
sVsameSite
p32
VLax
p33
sVpath
p34
g9
sVhttpOnly
p35
I00
sVname
p36
V_hjTLDTest
p37
sa(dp38
Vdomain
p39
V.clickfunnels.com
p40
sVname
p41
V_BEAMER_LAST_UPDATE_KZZpxzhH8357
p42
sVvalue
p43
V1615962090045
p44
sVexpiry
p45
I1641882090
sVsameSite
p46
VNone
p47
sVpath
p48
g9
sVhttpOnly
p49
I00
sVsecure
p50
I01
sa(dp51
Vdomain
p52
V.clickfunnels.com
p53
sVname
p54
Vajs_anonymous_id
p55
sVvalue
p56
V%22bf9b5132-b3e7-4d74-89a7-6cb50993a347%22
p57
sVexpiry
p58
I1647498089
sVsameSite
p59
VLax
p60
sVpath
p61
g9
sVhttpOnly
p62
I00
sVsecure
p63
I00
sa(dp64
Vdomain
p65
V.infoa9bf3f-app.clickfunnels.com
p66
sVsecure
p67
I00
sVvalue
p68
VD2ADA62A8383564E1F24AF6E50CF23FF4|8c8460091ac4bb773b242995cb78fde5
p69
sVexpiry
p70
I1647584489
sVpath
p71
g9
sVhttpOnly
p72
I00
sVname
p73
V_vwo_uuid_v2
p74
sa(dp75
Vdomain
p76
V.clickfunnels.com
p77
sVname
p78
V_BEAMER_DATE_KZZpxzhH8357
p79
sVvalue
p80
V2020-09-29T13:16:13.000Z
p81
sVexpiry
p82
I1641882090
sVsameSite
p83
VNone
p84
sVpath
p85
g9
sVhttpOnly
p86
I00
sVsecure
p87
I01
sa(dp88
Vdomain
p89
V.clickfunnels.com
p90
sVname
p91
V_hjid
p92
sVvalue
p93
V7551ab0f-ad5c-474d-9f0e-b1474788cc53
p94
sVexpiry
p95
I1647498090
sVsameSite
p96
VLax
p97
sVpath
p98
g9
sVhttpOnly
p99
I00
sVsecure
p100
I00
sa(dp101
Vdomain
p102
V.clickfunnels.com
p103
sVname
p104
V_BEAMER_FILTER_BY_URL_KZZpxzhH8357
p105
sVvalue
p106
Vfalse
p107
sVexpiry
p108
I1615963242
sVsameSite
p109
VNone
p110
sVpath
p111
g9
sVhttpOnly
p112
I00
sVsecure
p113
I01
sa(dp114
Vdomain
p115
V.clickfunnels.com
p116
sVsecure
p117
I00
sVvalue
p118
V%221a154154-7710-4451-a2e8-b85b070649da%22
p119
sVexpiry
p120
I1647498089
sVpath
p121
g9
sVhttpOnly
p122
I00
sVname
p123
V_attrb
p124
sa(dp125
Vdomain
p126
V.clickfunnels.com
p127
sVsecure
p128
I00
sVvalue
p129
VGA1.2.1185977060.1615962090
p130
sVexpiry
p131
I1616048489
sVpath
p132
g9
sVhttpOnly
p133
I00
sVname
p134
V_gid
p135
sa(dp136
Vdomain
p137
V.clickfunnels.com
p138
sVsecure
p139
I00
sVvalue
p140
VGA1.2.545524496.1615962090
p141
sVexpiry
p142
I1679034089
sVpath
p143
g9
sVhttpOnly
p144
I00
sVname
p145
V_ga
p146
sa(dp147
Vdomain
p148
V.clickfunnels.com
p149
sVname
p150
V__cfduid
p151
sVvalue
p152
Vddbb9b253430fd65e5ee3dd66f8531d7c1615962068
p153
sVexpiry
p154
I1618554068
sVsameSite
p155
VLax
p156
sVpath
p157
g9
sVhttpOnly
p158
I01
sVsecure
p159
I00
sa(dp160
Vdomain
p161
V.clickfunnels.com
p162
sVsecure
p163
I00
sVvalue
p164
Vnull
p165
sVexpiry
p166
I1647498089
sVpath
p167
g9
sVhttpOnly
p168
I00
sVname
p169
V_attrg
p170
sa(dp171
Vdomain
p172
V.clickfunnels.com
p173
sVname
p174
V_BEAMER_USER_ID_KZZpxzhH8357
p175
sVvalue
p176
Vdb28db3f-6746-43df-a506-13a007708025
p177
sVexpiry
p178
I1641882089
sVsameSite
p179
VNone
p180
sVpath
p181
g9
sVhttpOnly
p182
I00
sVsecure
p183
I01
sa(dp184
Vdomain
p185
V.clickfunnels.com
p186
sVsecure
p187
I00
sVvalue
p188
VQzNBRElIcTlsVmIzU0g4M1YwT1VQQT09LS1QT2VIR3g2dVVXVzhRVEVGcThtS1VnPT0%3D--6bc87962727071b6c77505e0dd9f717cb44d2db1
p189
sVexpiry
p190
I1647498084
sVpath
p191
g9
sVhttpOnly
p192
I00
sVname
p193
Vaccount_id
p194
sa(dp195
Vdomain
p196
V.clickfunnels.com
p197
sVsecure
p198
I00
sVvalue
p199
VBAhbCFsGaQOBUBlJIiIkMmEkMTAka0kxMTdJTEs5QUJjcGRPREx1VTJoZQY6BkVUSSIXMTYxNTk2MjA4My43MzQyMzYyBjsARg%3D%3D--446cc87b17603f2ffaf111ca81a6fb80e8792b9f
p200
sVexpiry
p201
I1617171683
sVpath
p202
g9
sVhttpOnly
p203
I01
sVname
p204
Vremember_user_token
p205
sa(dp206
Vdomain
p207
V.clickfunnels.com
p208
sVname
p209
V__cf_bm
p210
sVvalue
p211
Vdfb412b3ec06c5e62f9824221563d9f1646f338e-1615962068-1800-ATEh7qKjg7wdugDIcJjiTdRk5arO1xtqfDhOnaLx00W/nHP/RJeThrvVT914JXrxc3DmDCX3j7SoM/ceJX5AS8Xs2LnA9BVrXrz7Dhh72kUE
p212
sVexpiry
p213
I1615963868
sVsameSite
p214
VNone
p215
sVpath
p216
g9
sVhttpOnly
p217
I01
sVsecure
p218
I01
sa(dp219
Vdomain
p220
V.clickfunnels.com
p221
sVname
p222
Vintercom-session-cd5b8e754b483e4da362c711225e9d2298ed6e06
p223
sVvalue
p224
V
p225
sVexpiry
p226
I1616566884
sVsameSite
p227
VLax
p228
sVpath
p229
g9
sVhttpOnly
p230
I00
sVsecure
p231
I00
sa(dp232
Vdomain
p233
V.clickfunnels.com
p234
sVname
p235
Vintercom-id-cd5b8e754b483e4da362c711225e9d2298ed6e06
p236
sVvalue
p237
Vcf12895a-7342-4d05-ac79-e4ca436ef857
p238
sVexpiry
p239
I1639292084
sVsameSite
p240
VLax
p241
sVpath
p242
g9
sVhttpOnly
p243
I00
sVsecure
p244
I00
sa(dp245
Vdomain
p246
V.clickfunnels.com
p247
sVsecure
p248
I01
sVvalue
p249
Va50b9f5759855ea4483a925898eedb7322bb57b1-1615962083
p250
sVsameSite
p251
VNone
p252
sVpath
p253
g9
sVhttpOnly
p254
I01
sVname
p255
V__cfruid
p256
sa(dp257
Vdomain
p258
V.clickfunnels.com
p259
sVname
p260
V_etison_sessions_dcs_v2
p261
sVvalue
p262
Ve5ed87193342929d8d0db5d20ac3a385
p263
sVpath
p264
g9
sVhttpOnly
p265
I00
sVsecure
p266
I00
sa(dp267
Vdomain
p268
V.clickfunnels.com
p269
sVsecure
p270
I00
sVvalue
p271
Vnull
p272
sVexpiry
p273
I1647498089
sVpath
p274
g9
sVhttpOnly
p275
I00
sVname
p276
V_attru
p277
sa(dp278
Vdomain
p279
Vinfoa9bf3f-app.clickfunnels.com
p280
sVsecure
p281
I00
sVvalue
p282
VBAhJIi11c2VyIGluIGdvb2Qgc3RhbmRpbmcgd2hlbiBjb29raWUgaXMgc2V0BjoGRVQ%3D--12d8c2fcf3756324943ecc6ec0f86b94bd092fc2
p283
sVexpiry
p284
I1616005284
sVpath
p285
g9
sVhttpOnly
p286
I00
sVname
p287
Vwait_to_check_legal_doc_acceptance
p288
sa(dp289
Vdomain
p290
V.clickfunnels.com
p291
sVname
p292
V_hjFirstSeen
p293
sVvalue
p294
g31
sVexpiry
p295
I1615963890
sVsameSite
p296
VLax
p297
sVpath
p298
g9
sVhttpOnly
p299
I00
sVsecure
p300
I00
sa(dp301
Vdomain
p302
V.clickfunnels.com
p303
sVsecure
p304
I00
sVvalue
p305
g31
sVexpiry
p306
I1615962149
sVpath
p307
g9
sVhttpOnly
p308
I00
sVname
p309
V_gat_gtag_UA_36443564_3
p310
sa(dp311
Vdomain
p312
V.clickfunnels.com
p313
sVsecure
p314
I00
sVvalue
p315
g31
sVexpiry
p316
I1615962149
sVpath
p317
g9
sVhttpOnly
p318
I00
sVname
p319
V_gat_UA-36443564-3
p320
sa(dp321
Vdomain
p322
V.infoa9bf3f-app.clickfunnels.com
p323
sVsecure
p324
I00
sVvalue
p325
VGevI6E2hHJ4B
p326
sVexpiry
p327
I1679034089
sVpath
p328
g9
sVhttpOnly
p329
I00
sVname
p330
VwooTracker
p331
sa(dp332
Vdomain
p333
V.clickfunnels.com
p334
sVsecure
p335
I00
sVvalue
p336
Va0cb34a0-54a8-4d13-8b8b-ab0c0cd821cc
p337
sVexpiry
p338
I1931322091
sVpath
p339
g9
sVhttpOnly
p340
I00
sVname
p341
Vmdn_anonymous_id
p342
sa(dp343
Vdomain
p344
V.clickfunnels.com
p345
sVname
p346
V_BEAMER_FIRST_VISIT_KZZpxzhH8357
p347
sVvalue
p348
V2021-03-17T06:21:29.689Z
p349
sVexpiry
p350
I1875162089
sVsameSite
p351
VNone
p352
sVpath
p353
g9
sVhttpOnly
p354
I00
sVsecure
p355
I01
sa.